target datalayout = "e-m:e-p270:32:32-p271:32:32-p272:64:64-i64:64-i128:128-f80:128-n8:16:32:64-S128"
target triple = "x86_64-pc-linux-gnu"

%struct.H5C_cache_entry_t = type { ptr, i64, i64, ptr, i8, ptr, i8, i8, i8, i8, i32, i8, i8, i8, i8, i8, i32, ptr, i32, i32, i32, i32, i32, i8, i8, ptr, ptr, ptr, ptr, ptr, ptr, i8, i32, i8, i64, ptr, i64, i64, i32, i8, i32, i32, i8, ptr, ptr, ptr }
%struct.H5SM_index_header_t = type { i32, i64, i64, i64, i64, i32, i64, i64, i64 }
%struct.H5SM_bt2_ctx_t = type { i8 }
%struct.H5SM_list_t = type { %struct.H5C_cache_entry_t, ptr, ptr }
%struct.H5SM_sohm_t = type { i32, i32, i32, %union.anon }
%union.anon = type { %struct.H5O_mesg_loc_t }
%struct.H5O_mesg_loc_t = type { i32, i64 }

@H5SM_init_g = external global i8, align 1
@H5_libterm_g = external global i8, align 1
@.str.2 = private unnamed_addr constant [103 x i8] c"generated/home/dtcxzyw/WorkSpace/Projects/compilers/llvm-opt-benchmark/bench/hdf5/hdf5/src/H5SMcache.c\00", align 1
@H5E_SOHM_g = external global i64, align 8
@.str.12 = private unnamed_addr constant [5 x i8] c"SMLI\00", align 1
@__func__.H5SM__cache_list_serialize = private unnamed_addr constant [27 x i8] c"H5SM__cache_list_serialize\00", align 1
@H5E_CANTFLUSH_g = external global i64, align 8
@.str.15 = private unnamed_addr constant [35 x i8] c"unable to serialize shared message\00", align 1

; Function Attrs: nounwind uwtable
define internal i32 @H5SM__cache_list_serialize(ptr noundef %0, ptr noundef %1, i64 noundef %2, ptr noundef %3) #0 {
  %5 = alloca ptr, align 8
  %6 = alloca ptr, align 8
  %7 = alloca i64, align 8
  %8 = alloca ptr, align 8
  %9 = alloca ptr, align 8
  %10 = alloca %struct.H5SM_bt2_ctx_t, align 1
  %11 = alloca ptr, align 8
  %12 = alloca i32, align 4
  %13 = alloca i64, align 8
  %14 = alloca i64, align 8
  %15 = alloca i32, align 4
  %16 = alloca i8, align 1
  store ptr %0, ptr %5, align 8, !tbaa !28
  store ptr %1, ptr %6, align 8, !tbaa !3
  store i64 %2, ptr %7, align 8, !tbaa !18
  store ptr %3, ptr %8, align 8, !tbaa !3
  call void @llvm.lifetime.start.p0(i64 8, ptr %9) #7
  %17 = load ptr, ptr %8, align 8, !tbaa !3
  store ptr %17, ptr %9, align 8, !tbaa !3
  call void @llvm.lifetime.start.p0(i64 1, ptr %10) #7
  call void @llvm.lifetime.start.p0(i64 8, ptr %11) #7
  %18 = load ptr, ptr %6, align 8, !tbaa !3
  store ptr %18, ptr %11, align 8, !tbaa !20
  call void @llvm.lifetime.start.p0(i64 4, ptr %12) #7
  call void @llvm.lifetime.start.p0(i64 8, ptr %13) #7
  call void @llvm.lifetime.start.p0(i64 8, ptr %14) #7
  call void @llvm.lifetime.start.p0(i64 4, ptr %15) #7
  store i32 0, ptr %15, align 4, !tbaa !22
  call void @llvm.lifetime.start.p0(i64 1, ptr %16) #7
  store i8 0, ptr %16, align 1, !tbaa !11
  %19 = load i8, ptr @H5SM_init_g, align 1, !tbaa !11, !range !13, !noundef !14
  %20 = trunc i8 %19 to i1
  br i1 %20, label %25, label %21

21:                                               ; preds = %4
  %22 = load i8, ptr @H5_libterm_g, align 1, !tbaa !11, !range !13, !noundef !14
  %23 = trunc i8 %22 to i1
  %24 = xor i1 %23, true
  br label %25

25:                                               ; preds = %21, %4
  %26 = phi i1 [ true, %4 ], [ %24, %21 ]
  %27 = xor i1 %26, true
  %28 = xor i1 %27, true
  %29 = zext i1 %28 to i32
  %30 = sext i32 %29 to i64
  %31 = call i64 @llvm.expect.i64(i64 %30, i64 1)
  %32 = icmp ne i64 %31, 0
  br i1 %32, label %33, label %171

33:                                               ; preds = %25
  %34 = load ptr, ptr %11, align 8, !tbaa !20
  call void @llvm.memcpy.p0.p0.i64(ptr align 1 %34, ptr align 1 @.str.12, i64 4, i1 false)
  %35 = load ptr, ptr %11, align 8, !tbaa !20
  %36 = getelementptr inbounds i8, ptr %35, i64 4
  store ptr %36, ptr %11, align 8, !tbaa !20
  store i64 0, ptr %13, align 8, !tbaa !18
  %37 = load ptr, ptr %5, align 8, !tbaa !28
  %38 = call zeroext i8 @H5F_sizeof_addr(ptr noundef %37)
  %39 = getelementptr inbounds nuw %struct.H5SM_bt2_ctx_t, ptr %10, i32 0, i32 0
  store i8 %38, ptr %39, align 1, !tbaa !61
  store i64 0, ptr %14, align 8, !tbaa !18
  br label %40

40:                                               ; preds = %117, %33
  %41 = load i64, ptr %14, align 8, !tbaa !18
  %42 = load ptr, ptr %9, align 8, !tbaa !3
  %43 = getelementptr inbounds nuw %struct.H5SM_list_t, ptr %42, i32 0, i32 1
  %44 = load ptr, ptr %43, align 8, !tbaa !60
  %45 = getelementptr inbounds nuw %struct.H5SM_index_header_t, ptr %44, i32 0, i32 2
  %46 = load i64, ptr %45, align 8, !tbaa !44
  %47 = icmp ult i64 %41, %46
  br i1 %47, label %48, label %56

48:                                               ; preds = %40
  %49 = load i64, ptr %13, align 8, !tbaa !18
  %50 = load ptr, ptr %9, align 8, !tbaa !3
  %51 = getelementptr inbounds nuw %struct.H5SM_list_t, ptr %50, i32 0, i32 1
  %52 = load ptr, ptr %51, align 8, !tbaa !60
  %53 = getelementptr inbounds nuw %struct.H5SM_index_header_t, ptr %52, i32 0, i32 4
  %54 = load i64, ptr %53, align 8, !tbaa !46
  %55 = icmp ult i64 %49, %54
  br label %56

56:                                               ; preds = %48, %40
  %57 = phi i1 [ false, %40 ], [ %55, %48 ]
  br i1 %57, label %58, label %120

58:                                               ; preds = %56
  %59 = load ptr, ptr %9, align 8, !tbaa !3
  %60 = getelementptr inbounds nuw %struct.H5SM_list_t, ptr %59, i32 0, i32 2
  %61 = load ptr, ptr %60, align 8, !tbaa !58
  %62 = load i64, ptr %14, align 8, !tbaa !18
  %63 = getelementptr inbounds nuw %struct.H5SM_sohm_t, ptr %61, i64 %62
  %64 = getelementptr inbounds nuw %struct.H5SM_sohm_t, ptr %63, i32 0, i32 0
  %65 = load i32, ptr %64, align 8, !tbaa !64
  %66 = icmp ne i32 %65, -1
  br i1 %66, label %67, label %116

67:                                               ; preds = %58
  %68 = load ptr, ptr %11, align 8, !tbaa !20
  %69 = load ptr, ptr %9, align 8, !tbaa !3
  %70 = getelementptr inbounds nuw %struct.H5SM_list_t, ptr %69, i32 0, i32 2
  %71 = load ptr, ptr %70, align 8, !tbaa !58
  %72 = load i64, ptr %14, align 8, !tbaa !18
  %73 = getelementptr inbounds nuw %struct.H5SM_sohm_t, ptr %71, i64 %72
  %74 = call i32 @H5SM__message_encode(ptr noundef %68, ptr noundef %73, ptr noundef %10)
  %75 = icmp slt i32 %74, 0
  br i1 %75, label %76, label %95

76:                                               ; preds = %67
  br label %77

77:                                               ; preds = %76
  br label %78

78:                                               ; preds = %77
  br label %79

79:                                               ; preds = %78
  %80 = load i64, ptr @H5E_SOHM_g, align 8, !tbaa !18
  %81 = load i64, ptr @H5E_CANTFLUSH_g, align 8, !tbaa !18
  %82 = call i32 (ptr, ptr, i32, i64, i64, ptr, ...) @H5E_printf_stack(ptr noundef @.str.2, ptr noundef @__func__.H5SM__cache_list_serialize, i32 noundef 659, i64 noundef %80, i64 noundef %81, ptr noundef @.str.15)
  br label %83

83:                                               ; preds = %79
  br label %84

84:                                               ; preds = %83
  store i8 1, ptr %16, align 1, !tbaa !11
  %85 = load i8, ptr %16, align 1, !tbaa !11, !range !13, !noundef !14
  %86 = trunc i8 %85 to i1
  %87 = zext i1 %86 to i8
  store i8 %87, ptr %16, align 1, !tbaa !11
  br label %88

88:                                               ; preds = %84
  br label %89

89:                                               ; preds = %88
  br label %90

90:                                               ; preds = %89
  store i32 -1, ptr %15, align 4, !tbaa !22
  br label %170

91:                                               ; No predecessors!
  br label %92

92:                                               ; preds = %91
  br label %93

93:                                               ; preds = %92
  br label %94

94:                                               ; preds = %93
  br label %95

95:                                               ; preds = %94, %67
  %96 = load ptr, ptr %5, align 8, !tbaa !28
  %97 = call zeroext i8 @H5F_sizeof_addr(ptr noundef %96)
  %98 = zext i8 %97 to i32
  %99 = add i32 4, %98
  %100 = zext i32 %99 to i64
  %101 = icmp ugt i64 12, %100
  br i1 %101, label %102, label %103

102:                                              ; preds = %95
  br label %109

103:                                              ; preds = %95
  %104 = load ptr, ptr %5, align 8, !tbaa !28
  %105 = call zeroext i8 @H5F_sizeof_addr(ptr noundef %104)
  %106 = zext i8 %105 to i32
  %107 = add i32 4, %106
  %108 = zext i32 %107 to i64
  br label %109

109:                                              ; preds = %103, %102
  %110 = phi i64 [ 12, %102 ], [ %108, %103 ]
  %111 = add i64 5, %110
  %112 = load ptr, ptr %11, align 8, !tbaa !20
  %113 = getelementptr inbounds nuw i8, ptr %112, i64 %111
  store ptr %113, ptr %11, align 8, !tbaa !20
  %114 = load i64, ptr %13, align 8, !tbaa !18
  %115 = add i64 %114, 1
  store i64 %115, ptr %13, align 8, !tbaa !18
  br label %116

116:                                              ; preds = %109, %58
  br label %117

117:                                              ; preds = %116
  %118 = load i64, ptr %14, align 8, !tbaa !18
  %119 = add i64 %118, 1
  store i64 %119, ptr %14, align 8, !tbaa !18
  br label %40, !llvm.loop !67

120:                                              ; preds = %56
  %121 = load ptr, ptr %6, align 8, !tbaa !3
  %122 = load ptr, ptr %11, align 8, !tbaa !20
  %123 = load ptr, ptr %6, align 8, !tbaa !3
  %124 = ptrtoint ptr %122 to i64
  %125 = ptrtoint ptr %123 to i64
  %126 = sub i64 %124, %125
  %127 = call i32 @H5_checksum_metadata(ptr noundef %121, i64 noundef %126, i32 noundef 0)
  store i32 %127, ptr %12, align 4, !tbaa !22
  br label %128

128:                                              ; preds = %120
  %129 = load i32, ptr %12, align 4, !tbaa !22
  %130 = and i32 %129, 255
  %131 = trunc i32 %130 to i8
  %132 = load ptr, ptr %11, align 8, !tbaa !20
  store i8 %131, ptr %132, align 1, !tbaa !39
  %133 = load ptr, ptr %11, align 8, !tbaa !20
  %134 = getelementptr inbounds nuw i8, ptr %133, i32 1
  store ptr %134, ptr %11, align 8, !tbaa !20
  %135 = load i32, ptr %12, align 4, !tbaa !22
  %136 = lshr i32 %135, 8
  %137 = and i32 %136, 255
  %138 = trunc i32 %137 to i8
  %139 = load ptr, ptr %11, align 8, !tbaa !20
  store i8 %138, ptr %139, align 1, !tbaa !39
  %140 = load ptr, ptr %11, align 8, !tbaa !20
  %141 = getelementptr inbounds nuw i8, ptr %140, i32 1
  store ptr %141, ptr %11, align 8, !tbaa !20
  %142 = load i32, ptr %12, align 4, !tbaa !22
  %143 = lshr i32 %142, 16
  %144 = and i32 %143, 255
  %145 = trunc i32 %144 to i8
  %146 = load ptr, ptr %11, align 8, !tbaa !20
  store i8 %145, ptr %146, align 1, !tbaa !39
  %147 = load ptr, ptr %11, align 8, !tbaa !20
  %148 = getelementptr inbounds nuw i8, ptr %147, i32 1
  store ptr %148, ptr %11, align 8, !tbaa !20
  %149 = load i32, ptr %12, align 4, !tbaa !22
  %150 = lshr i32 %149, 24
  %151 = and i32 %150, 255
  %152 = trunc i32 %151 to i8
  %153 = load ptr, ptr %11, align 8, !tbaa !20
  store i8 %152, ptr %153, align 1, !tbaa !39
  %154 = load ptr, ptr %11, align 8, !tbaa !20
  %155 = getelementptr inbounds nuw i8, ptr %154, i32 1
  store ptr %155, ptr %11, align 8, !tbaa !20
  br label %156

156:                                              ; preds = %128
  br label %157

157:                                              ; preds = %156
  %158 = load ptr, ptr %11, align 8, !tbaa !20
  %159 = load ptr, ptr %9, align 8, !tbaa !3
  %160 = getelementptr inbounds nuw %struct.H5SM_list_t, ptr %159, i32 0, i32 1
  %161 = load ptr, ptr %160, align 8, !tbaa !60
  %162 = getelementptr inbounds nuw %struct.H5SM_index_header_t, ptr %161, i32 0, i32 8
  %163 = load i64, ptr %162, align 8, !tbaa !47
  %164 = load ptr, ptr %11, align 8, !tbaa !20
  %165 = load ptr, ptr %6, align 8, !tbaa !3
  %166 = ptrtoint ptr %164 to i64
  %167 = ptrtoint ptr %165 to i64
  %168 = sub i64 %166, %167
  %169 = sub i64 %163, %168
  call void @llvm.memset.p0.i64(ptr align 1 %158, i8 0, i64 %169, i1 false)
  br label %170

170:                                              ; preds = %157, %90
  br label %171

171:                                              ; preds = %170, %25
  %172 = load i32, ptr %15, align 4, !tbaa !22
  call void @llvm.lifetime.end.p0(i64 1, ptr %16) #7
  call void @llvm.lifetime.end.p0(i64 4, ptr %15) #7
  call void @llvm.lifetime.end.p0(i64 8, ptr %14) #7
  call void @llvm.lifetime.end.p0(i64 8, ptr %13) #7
  call void @llvm.lifetime.end.p0(i64 4, ptr %12) #7
  call void @llvm.lifetime.end.p0(i64 8, ptr %11) #7
  call void @llvm.lifetime.end.p0(i64 1, ptr %10) #7
  call void @llvm.lifetime.end.p0(i64 8, ptr %9) #7
  ret i32 %172
}