; Function Attrs: nounwind uwtable
define internal range(i32 -1, 1) i32 @H5SM__cache_list_serialize(ptr noundef %0, ptr noundef %1, i64 %2, ptr noundef readonly captures(none) %3) #0 {
  %5 = alloca %struct.H5SM_bt2_ctx_t, align 1
  call void @llvm.lifetime.start.p0(i64 1, ptr nonnull %5) #6
  %6 = load i8, ptr @H5SM_init_g, align 1, !tbaa !3, !range !7, !noundef !8
  %7 = trunc nuw i8 %6 to i1
  %8 = load i8, ptr @H5_libterm_g, align 1, !range !7
  %9 = trunc nuw i8 %8 to i1
  %10 = xor i1 %9, true
  %11 = select i1 %7, i1 true, i1 %10
  br i1 %11, label %12, label %73, !prof !9

12:                                               ; preds = %4
  store i32 1229737299, ptr %1, align 1
  %13 = getelementptr inbounds nuw i8, ptr %1, i64 4
  %14 = tail call zeroext i8 @H5F_sizeof_addr(ptr noundef %0) #6
  store i8 %14, ptr %5, align 1, !tbaa !51
  %15 = getelementptr inbounds nuw i8, ptr %3, i64 248
  %16 = load ptr, ptr %15, align 8, !tbaa !50
  %17 = getelementptr inbounds nuw i8, ptr %16, i64 16
  %18 = load i64, ptr %17, align 8, !tbaa !36
  %.not51 = icmp eq i64 %18, 0
  br i1 %.not51, label %.critedge, label %.lr.ph

.lr.ph:                                           ; preds = %12
  %19 = getelementptr inbounds nuw i8, ptr %3, i64 256
  br label %20

20:                                               ; preds = %.lr.ph, %47
  %21 = phi ptr [ %16, %.lr.ph ], [ %48, %47 ]
  %.03948 = phi i64 [ 0, %.lr.ph ], [ %49, %47 ]
  %.04047 = phi i64 [ 0, %.lr.ph ], [ %.1, %47 ]
  %.04146 = phi ptr [ %13, %.lr.ph ], [ %.142, %47 ]
  %22 = getelementptr inbounds nuw i8, ptr %21, i64 32
  %23 = load i64, ptr %22, align 8, !tbaa !38
  %24 = icmp ult i64 %.04047, %23
  br i1 %24, label %25, label %.critedge

25:                                               ; preds = %20
  %26 = load ptr, ptr %19, align 8, !tbaa !48
  %27 = getelementptr inbounds nuw %struct.H5SM_sohm_t, ptr %26, i64 %.03948
  %28 = load i32, ptr %27, align 8, !tbaa !54
  %.not = icmp eq i32 %28, -1
  br i1 %.not, label %47, label %29

29:                                               ; preds = %25
  %30 = call i32 @H5SM__message_encode(ptr noundef %.04146, ptr noundef nonnull %27, ptr noundef nonnull %5) #6
  %31 = icmp slt i32 %30, 0
  br i1 %31, label %32, label %36

32:                                               ; preds = %29
  %33 = load i64, ptr @H5E_SOHM_g, align 8, !tbaa !14
  %34 = load i64, ptr @H5E_CANTFLUSH_g, align 8, !tbaa !14
  %35 = call i32 (ptr, ptr, i32, i64, i64, ptr, ...) @H5E_printf_stack(ptr noundef nonnull @.str.2, ptr noundef nonnull @__func__.H5SM__cache_list_serialize, i32 noundef 659, i64 noundef %33, i64 noundef %34, ptr noundef nonnull @.str.15) #6
  br label %73

36:                                               ; preds = %29
  %37 = call zeroext i8 @H5F_sizeof_addr(ptr noundef %0) #6
  %38 = icmp ult i8 %37, 8
  br i1 %38, label %43, label %39

39:                                               ; preds = %36
  %40 = call zeroext i8 @H5F_sizeof_addr(ptr noundef %0) #6
  %41 = zext i8 %40 to i64
  %42 = add nuw nsw i64 %41, 9
  br label %43

43:                                               ; preds = %36, %39
  %44 = phi i64 [ %42, %39 ], [ 17, %36 ]
  %45 = getelementptr inbounds nuw i8, ptr %.04146, i64 %44
  %46 = add nuw i64 %.04047, 1
  %.pre = load ptr, ptr %15, align 8, !tbaa !50
  br label %47

47:                                               ; preds = %25, %43
  %48 = phi ptr [ %.pre, %43 ], [ %21, %25 ]
  %.142 = phi ptr [ %45, %43 ], [ %.04146, %25 ]
  %.1 = phi i64 [ %46, %43 ], [ %.04047, %25 ]
  %49 = add nuw i64 %.03948, 1
  %50 = getelementptr inbounds nuw i8, ptr %48, i64 16
  %51 = load i64, ptr %50, align 8, !tbaa !36
  %52 = icmp ult i64 %49, %51
  br i1 %52, label %20, label %.critedge, !llvm.loop !57

.critedge:                                        ; preds = %20, %47, %12
  %.041.lcssa = phi ptr [ %13, %12 ], [ %.142, %47 ], [ %.04146, %20 ]
  %53 = ptrtoint ptr %.041.lcssa to i64
  %54 = ptrtoint ptr %1 to i64
  %55 = sub i64 %53, %54
  %56 = call i32 @H5_checksum_metadata(ptr noundef nonnull %1, i64 noundef %55, i32 noundef 0) #6
  %57 = trunc i32 %56 to i8
  store i8 %57, ptr %.041.lcssa, align 1, !tbaa !31
  %58 = getelementptr inbounds nuw i8, ptr %.041.lcssa, i64 1
  %59 = lshr i32 %56, 8
  %60 = trunc i32 %59 to i8
  store i8 %60, ptr %58, align 1, !tbaa !31
  %61 = getelementptr inbounds nuw i8, ptr %.041.lcssa, i64 2
  %62 = lshr i32 %56, 16
  %63 = trunc i32 %62 to i8
  store i8 %63, ptr %61, align 1, !tbaa !31
  %64 = getelementptr inbounds nuw i8, ptr %.041.lcssa, i64 3
  %65 = lshr i32 %56, 24
  %66 = trunc nuw i32 %65 to i8
  store i8 %66, ptr %64, align 1, !tbaa !31
  %67 = getelementptr inbounds nuw i8, ptr %.041.lcssa, i64 4
  %68 = load ptr, ptr %15, align 8, !tbaa !50
  %69 = getelementptr inbounds nuw i8, ptr %68, i64 64
  %70 = load i64, ptr %69, align 8, !tbaa !39
  %71 = ptrtoint ptr %67 to i64
  %.neg = sub i64 %54, %71
  %72 = add i64 %.neg, %70
  call void @llvm.memset.p0.i64(ptr nonnull align 1 %67, i8 0, i64 %72, i1 false)
  br label %73

73:                                               ; preds = %32, %.critedge, %4
  %.0 = phi i32 [ -1, %32 ], [ 0, %.critedge ], [ 0, %4 ]
  call void @llvm.lifetime.end.p0(i64 1, ptr nonnull %5) #6
  ret i32 %.0
}